(dp1
S'files'
p2
(dp3
S'utama_migrations_0007_auto__add_field_kolega_tanggal_lahir'
p4
(dp5
S'index'
p6
(dp7
S'html_filename'
p8
S'utama_migrations_0007_auto__add_field_kolega_tanggal_lahir.html'
p9
sS'name'
p10
S'utama/migrations/0007_auto__add_field_kolega_tanggal_lahir'
p11
sS'nums'
p12
ccopy_reg
_reconstructor
p13
(ccoverage.results
Numbers
p14
c__builtin__
object
p15
NtRp16
(dp17
S'n_files'
p18
I1
sS'n_branches'
p19
I0
sS'n_statements'
p20
I11
sS'n_excluded'
p21
I0
sS'n_partial_branches'
p22
I0
sS'n_missing'
p23
I1
sS'n_missing_branches'
p24
I0
sbssS'hash'
p25
S']\x89\x02\xdd\xaf\xd7"^\'\x99\xda\x19_\xcb\x81b'
p26
ssS'settings_base'
p27
(dp28
g6
(dp29
g8
S'settings_base.html'
p30
sg10
S'settings/base'
p31
sg12
g13
(g14
g15
NtRp32
(dp33
g18
I1
sg19
I0
sg20
I41
sg21
I0
sg22
I0
sg23
I5
sg24
I0
sbssg25
S'+5\x0bF\xb3\xaeq\xefgH\x08\xec\x84\xde+r'
p34
ssS'utama_migrations_0009_auto__del_field_aktivitas_user__add_field_aktivitas_kolega'
p35
(dp36
g6
(dp37
g8
S'utama_migrations_0009_auto__del_field_aktivitas_user__add_field_aktivitas_kolega.html'
p38
sg10
S'utama/migrations/0009_auto__del_field_aktivitas_user__add_field_aktivitas_kolega'
p39
sg12
g13
(g14
g15
NtRp40
(dp41
g18
I1
sg19
I0
sg20
I13
sg21
I0
sg22
I0
sg23
I2
sg24
I0
sbssg25
S'Y\x921\x11\x8e\xc8\x9e\xe8;\x82\x81\x90\x90\x9e\x9cH'
p42
ssS'aplikasi_wsgi'
p43
(dp44
g6
(dp45
g8
S'aplikasi_wsgi.html'
p46
sg10
S'aplikasi/wsgi'
p47
sg12
g13
(g14
g15
NtRp48
(dp49
g18
I1
sg19
I0
sg20
I4
sg21
I0
sg22
I0
sg23
I0
sg24
I0
sbssg25
S'c\xc8\xa2=\xfd\xcb\xacj\x80\x0e\xdbo\xd4\x9f\xeeE'
p50
ssS'manage'
p51
(dp52
g6
(dp53
g8
S'manage.html'
p54
sg10
g51
sg12
g13
(g14
g15
NtRp55
(dp56
g18
I1
sg19
I0
sg20
I6
sg21
I0
sg22
I0
sg23
I0
sg24
I0
sbssg25
S'Vo\xb93+E\xbfB\xcc\x0f\x13\x99\x12\xf8\xf4\xd5'
p57
ssS'aplikasi___init__'
p58
(dp59
g6
(dp60
g8
S'aplikasi___init__.html'
p61
sg10
S'aplikasi/__init__'
p62
sg12
g13
(g14
g15
NtRp63
(dp64
g18
I1
sg19
I0
sg20
I0
sg21
I0
sg22
I0
sg23
I0
sg24
I0
sbssg25
S'\xb0\xc8pN\xaf>\xa0\xbaz\x144\xe0A9\xb8?'
p65
ssS'utama___init__'
p66
(dp67
g6
(dp68
g8
S'utama___init__.html'
p69
sg10
S'utama/__init__'
p70
sg12
g13
(g14
g15
NtRp71
(dp72
g18
I1
sg19
I0
sg20
I0
sg21
I0
sg22
I0
sg23
I0
sg24
I0
sbssg25
S'\xb0\xc8pN\xaf>\xa0\xbaz\x144\xe0A9\xb8?'
p73
ssS'utama_migrations___init__'
p74
(dp75
g6
(dp76
g8
S'utama_migrations___init__.html'
p77
sg10
S'utama/migrations/__init__'
p78
sg12
g13
(g14
g15
NtRp79
(dp80
g18
I1
sg19
I0
sg20
I0
sg21
I0
sg22
I0
sg23
I0
sg24
I0
sbssg25
S'\xb0\xc8pN\xaf>\xa0\xbaz\x144\xe0A9\xb8?'
p81
ssS'utama_libs'
p82
(dp83
g6
(dp84
g8
S'utama_libs.html'
p85
sg10
S'utama/libs'
p86
sg12
g13
(g14
g15
NtRp87
(dp88
g18
I1
sg19
I0
sg20
I37
sg21
I0
sg22
I0
sg23
I33
sg24
I0
sbssg25
S')\x8f\xedK*&\xe8t\xf9[0\x8d\x17\x97&\x85'
p89
ssS'utama_migrations_0006_auto__add_field_poinkontak_user'
p90
(dp91
g6
(dp92
g8
S'utama_migrations_0006_auto__add_field_poinkontak_user.html'
p93
sg10
S'utama/migrations/0006_auto__add_field_poinkontak_user'
p94
sg12
g13
(g14
g15
NtRp95
(dp96
g18
I1
sg19
I0
sg20
I11
sg21
I0
sg22
I0
sg23
I1
sg24
I0
sbssg25
S'#An\x17\x13\xe3\xd0\xa9"\xcc\xe8\x8d\xc2\xbc\xac\x14'
p97
ssS'utama_migrations_0004_auto__add_field_kolega_organisasi__add_field_poinkontak_kolega'
p98
(dp99
g6
(dp100
g8
S'utama_migrations_0004_auto__add_field_kolega_organisasi__add_field_poinkontak_kolega.html'
p101
sg10
S'utama/migrations/0004_auto__add_field_kolega_organisasi__add_field_poinkontak_kolega'
p102
sg12
g13
(g14
g15
NtRp103
(dp104
g18
I1
sg19
I0
sg20
I13
sg21
I0
sg22
I0
sg23
I2
sg24
I0
sbssg25
S't<\xec\xecA=X;P\xd6Edb{\xf3h'
p105
ssS'settings___init__'
p106
(dp107
g6
(dp108
g8
S'settings___init__.html'
p109
sg10
S'settings/__init__'
p110
sg12
g13
(g14
g15
NtRp111
(dp112
g18
I1
sg19
I0
sg20
I0
sg21
I0
sg22
I0
sg23
I0
sg24
I0
sbssg25
S'\xb0\xc8pN\xaf>\xa0\xbaz\x144\xe0A9\xb8?'
p113
ssS'utama_migrations_0005_auto__add_field_kolega_telepon__add_field_kolega_email'
p114
(dp115
g6
(dp116
g8
S'utama_migrations_0005_auto__add_field_kolega_telepon__add_field_kolega_email.html'
p117
sg10
S'utama/migrations/0005_auto__add_field_kolega_telepon__add_field_kolega_email'
p118
sg12
g13
(g14
g15
NtRp119
(dp120
g18
I1
sg19
I0
sg20
I13
sg21
I0
sg22
I0
sg23
I2
sg24
I0
sbssg25
S'\x14\x86\x17\xf8\xa9#\xbbY\x8bu\xcb`}\x9c\x00$'
p121
ssS'utama_migrations_0008_auto__add_aktivitas__add_field_poinkontak_aktivitas'
p122
(dp123
g6
(dp124
g8
S'utama_migrations_0008_auto__add_aktivitas__add_field_poinkontak_aktivitas.html'
p125
sg10
S'utama/migrations/0008_auto__add_aktivitas__add_field_poinkontak_aktivitas'
p126
sg12
g13
(g14
g15
NtRp127
(dp128
g18
I1
sg19
I0
sg20
I14
sg21
I0
sg22
I0
sg23
I2
sg24
I0
sbssg25
S'\xd6\x97;\x83\x14\r*\r\x8ec\xb9\xc0\x12\x99\xb2\x9b'
p129
ssS'utama_migrations_0002_initial'
p130
(dp131
g6
(dp132
g8
S'utama_migrations_0002_initial.html'
p133
sg10
S'utama/migrations/0002_initial'
p134
sg12
g13
(g14
g15
NtRp135
(dp136
g18
I1
sg19
I0
sg20
I18
sg21
I0
sg22
I0
sg23
I3
sg24
I0
sbssg25
S'\xd1{p^x\xa6\x9fW\xdd`\xa7\xb7>\x03\xf0\x14'
p137
ssS'aplikasi_settings'
p138
(dp139
g6
(dp140
g8
S'aplikasi_settings.html'
p141
sg10
S'aplikasi/settings'
p142
sg12
g13
(g14
g15
NtRp143
(dp144
g18
I1
sg19
I0
sg20
I41
sg21
I0
sg22
I0
sg23
I5
sg24
I0
sbssg25
S'+5\x0bF\xb3\xaeq\xefgH\x08\xec\x84\xde+r'
p145
ssS'settings_test'
p146
(dp147
g6
(dp148
g8
S'settings_test.html'
p149
sg10
S'settings/test'
p150
sg12
g13
(g14
g15
NtRp151
(dp152
g18
I1
sg19
I0
sg20
I6
sg21
I0
sg22
I0
sg23
I0
sg24
I0
sbssg25
S'\x92\xae\x04\x83f-\x00I\xae4\xf8\x9c\x04H\xf9\t'
p153
ssS'utama_migrations_0001_initial'
p154
(dp155
g6
(dp156
g8
S'utama_migrations_0001_initial.html'
p157
sg10
S'utama/migrations/0001_initial'
p158
sg12
g13
(g14
g15
NtRp159
(dp160
g18
I1
sg19
I0
sg20
I11
sg21
I0
sg22
I0
sg23
I1
sg24
I0
sbssg25
S'I.3v(\xa9#j\xc9\xb8\x97g2h\xe3R'
p161
ssS'aplikasi_urls'
p162
(dp163
g6
(dp164
g8
S'aplikasi_urls.html'
p165
sg10
S'aplikasi/urls'
p166
sg12
g13
(g14
g15
NtRp167
(dp168
g18
I1
sg19
I0
sg20
I4
sg21
I0
sg22
I0
sg23
I0
sg24
I0
sbssg25
S'\x87v \x9f\x1cy\xb2M\xe0WH\xdd\xe8\x18\xa4U'
p169
ssS'utama_views'
p170
(dp171
g6
(dp172
g8
S'utama_views.html'
p173
sg10
S'utama/views'
p174
sg12
g13
(g14
g15
NtRp175
(dp176
g18
I1
sg19
I0
sg20
I164
sg21
I0
sg22
I0
sg23
I140
sg24
I0
sbssg25
S">\xf9Vf\xa7nf\xa3Z\xf2?'\\-\xb86"
p177
ssS'utama_tests'
p178
(dp179
g6
(dp180
g8
S'utama_tests.html'
p181
sg10
S'utama/tests'
p182
sg12
g13
(g14
g15
NtRp183
(dp184
g18
I1
sg19
I0
sg20
I4
sg21
I0
sg22
I0
sg23
I0
sg24
I0
sbssg25
S'z\xb4?\\P\xc5\xe50it\x10\xb1\xbb\xc9j\x00'
p185
ssS'utama_admin'
p186
(dp187
g6
(dp188
g8
S'utama_admin.html'
p189
sg10
S'utama/admin'
p190
sg12
g13
(g14
g15
NtRp191
(dp192
g18
I1
sg19
I0
sg20
I19
sg21
I0
sg22
I0
sg23
I0
sg24
I0
sbssg25
S'\x08X~\x8c\x82d\xc9\xbc.\xf8\xf5mR>f\x92'
p193
ssS'utama_migrations_0003_auto__add_kolega__add_poinkontak'
p194
(dp195
g6
(dp196
g8
S'utama_migrations_0003_auto__add_kolega__add_poinkontak.html'
p197
sg10
S'utama/migrations/0003_auto__add_kolega__add_poinkontak'
p198
sg12
g13
(g14
g15
NtRp199
(dp200
g18
I1
sg19
I0
sg20
I15
sg21
I0
sg22
I0
sg23
I2
sg24
I0
sbssg25
S"F\xcb'\xdc\xa5\xa4o\xd7\xf1C\x827\xf0\xe5\xe6\xb5"
p201
ssS'utama_models'
p202
(dp203
g6
(dp204
g8
S'utama_models.html'
p205
sg10
S'utama/models'
p206
sg12
g13
(g14
g15
NtRp207
(dp208
g18
I1
sg19
I0
sg20
I92
sg21
I0
sg22
I0
sg23
I26
sg24
I0
sbssg25
S':\xca\xbbt\xbbm-\x8d}\xf7\xe6O_\xdam\xd3'
p209
ssS'utama_forms'
p210
(dp211
g6
(dp212
g8
S'utama_forms.html'
p213
sg10
S'utama/forms'
p214
sg12
g13
(g14
g15
NtRp215
(dp216
g18
I1
sg19
I0
sg20
I29
sg21
I0
sg22
I0
sg23
I0
sg24
I0
sbssg25
S'h\xa2\x8e\x86\xe2\xe5\xa1{\x18\xea\xd9\xaa[\xd8\x7f\xf3'
p217
sssS'version'
p218
S'3.6'
p219
sS'settings'
p220
S'\xdc\xb2\xc7#\xc7~?\xafW\xb7\x18\xa1Q\x80\x86\xe8'
p221
sS'format'
p222
I1
s.